; Function Attrs: nounwind uwtable
define dso_local void @lua_rawset(ptr noundef %0, i32 noundef %1) local_unnamed_addr #1 {
  %3 = icmp sgt i32 %1, 0
  br i1 %3, label %4, label %18

4:                                                ; preds = %2
  %5 = getelementptr inbounds nuw i8, ptr %0, i64 32
  %6 = load ptr, ptr %5, align 8, !tbaa !15
  %7 = zext nneg i32 %1 to i64
  %8 = getelementptr %union.TValue, ptr %6, i64 %7
  %9 = getelementptr i8, ptr %8, i64 -8
  %10 = getelementptr inbounds nuw i8, ptr %0, i64 40
  %11 = load ptr, ptr %10, align 8, !tbaa !14
  %12 = icmp ult ptr %9, %11
  br i1 %12, label %index2adr.exit, label %13

13:                                               ; preds = %4
  %14 = getelementptr inbounds nuw i8, ptr %0, i64 16
  %15 = load i64, ptr %14, align 8, !tbaa !21
  %16 = inttoptr i64 %15 to ptr
  %17 = getelementptr inbounds nuw i8, ptr %16, i64 248
  br label %index2adr.exit

18:                                               ; preds = %2
  %19 = icmp sgt i32 %1, -10000
  br i1 %19, label %20, label %25

20:                                               ; preds = %18
  %21 = getelementptr inbounds nuw i8, ptr %0, i64 40
  %22 = load ptr, ptr %21, align 8, !tbaa !14
  %23 = sext i32 %1 to i64
  %24 = getelementptr inbounds %union.TValue, ptr %22, i64 %23
  br label %index2adr.exit

25:                                               ; preds = %18
  switch i32 %1, label %39 [
    i32 -10002, label %26
    i32 -10000, label %34
  ]

26:                                               ; preds = %25
  %27 = getelementptr inbounds nuw i8, ptr %0, i64 16
  %28 = load i64, ptr %27, align 8, !tbaa !21
  %29 = inttoptr i64 %28 to ptr
  %30 = getelementptr inbounds nuw i8, ptr %29, i64 232
  %31 = getelementptr inbounds nuw i8, ptr %0, i64 72
  %32 = load i64, ptr %31, align 8, !tbaa !24
  %33 = or i64 %32, -1688849860263936
  store i64 %33, ptr %30, align 8, !tbaa !17
  br label %index2adr.exit

34:                                               ; preds = %25
  %35 = getelementptr inbounds nuw i8, ptr %0, i64 16
  %36 = load i64, ptr %35, align 8, !tbaa !21
  %37 = inttoptr i64 %36 to ptr
  %38 = getelementptr inbounds nuw i8, ptr %37, i64 272
  br label %index2adr.exit

39:                                               ; preds = %25
  %40 = getelementptr inbounds nuw i8, ptr %0, i64 32
  %41 = load ptr, ptr %40, align 8, !tbaa !15
  %42 = getelementptr inbounds i8, ptr %41, i64 -16
  %43 = load i64, ptr %42, align 8, !tbaa !17
  %44 = and i64 %43, 140737488355327
  %45 = inttoptr i64 %44 to ptr
  %46 = icmp eq i32 %1, -10001
  br i1 %46, label %47, label %55

47:                                               ; preds = %39
  %48 = getelementptr inbounds nuw i8, ptr %0, i64 16
  %49 = load i64, ptr %48, align 8, !tbaa !21
  %50 = inttoptr i64 %49 to ptr
  %51 = getelementptr inbounds nuw i8, ptr %50, i64 232
  %52 = getelementptr inbounds nuw i8, ptr %45, i64 16
  %53 = load i64, ptr %52, align 8, !tbaa !17
  %54 = or i64 %53, -1688849860263936
  store i64 %54, ptr %51, align 8, !tbaa !17
  br label %index2adr.exit

55:                                               ; preds = %39
  %56 = sub nuw nsw i32 -10002, %1
  %57 = getelementptr inbounds nuw i8, ptr %45, i64 11
  %58 = load i8, ptr %57, align 1, !tbaa !17
  %59 = zext i8 %58 to i32
  %.not.i = icmp samesign ugt i32 %56, %59
  br i1 %.not.i, label %65, label %60

60:                                               ; preds = %55
  %61 = getelementptr inbounds nuw i8, ptr %45, i64 48
  %62 = sub nsw i32 -10003, %1
  %63 = sext i32 %62 to i64
  %64 = getelementptr inbounds [1 x %union.TValue], ptr %61, i64 0, i64 %63
  br label %index2adr.exit

65:                                               ; preds = %55
  %66 = getelementptr inbounds nuw i8, ptr %0, i64 16
  %67 = load i64, ptr %66, align 8, !tbaa !21
  %68 = inttoptr i64 %67 to ptr
  %69 = getelementptr inbounds nuw i8, ptr %68, i64 248
  br label %index2adr.exit

index2adr.exit:                                   ; preds = %4, %13, %20, %26, %34, %47, %60, %65
  %.0.i = phi ptr [ %24, %20 ], [ %30, %26 ], [ %38, %34 ], [ %17, %13 ], [ %9, %4 ], [ %51, %47 ], [ %64, %60 ], [ %69, %65 ]
  %70 = load i64, ptr %.0.i, align 8, !tbaa !17
  %71 = and i64 %70, 140737488355327
  %72 = inttoptr i64 %71 to ptr
  %73 = getelementptr inbounds nuw i8, ptr %0, i64 40
  %74 = load ptr, ptr %73, align 8, !tbaa !14
  %75 = getelementptr inbounds i8, ptr %74, i64 -16
  %76 = tail call ptr @lj_tab_set(ptr noundef nonnull %0, ptr noundef %72, ptr noundef nonnull %75) #13
  %77 = getelementptr inbounds i8, ptr %74, i64 -8
  %78 = load i64, ptr %77, align 8, !tbaa !17
  store i64 %78, ptr %76, align 8, !tbaa !17
  %79 = getelementptr inbounds nuw i8, ptr %72, i64 8
  %80 = load i8, ptr %79, align 8, !tbaa !17
  %81 = and i8 %80, 4
  %.not = icmp eq i8 %81, 0
  br i1 %.not, label %90, label %82, !prof !27

82:                                               ; preds = %index2adr.exit
  %83 = getelementptr inbounds nuw i8, ptr %0, i64 16
  %84 = load i64, ptr %83, align 8, !tbaa !21
  %85 = inttoptr i64 %84 to ptr
  %86 = and i8 %80, -5
  store i8 %86, ptr %79, align 8, !tbaa !17
  %87 = getelementptr inbounds nuw i8, ptr %85, i64 64
  %88 = load i64, ptr %87, align 8, !tbaa !46
  %89 = getelementptr inbounds nuw i8, ptr %72, i64 24
  store i64 %88, ptr %89, align 8, !tbaa !47
  store i64 %71, ptr %87, align 8, !tbaa !46
  br label %90

90:                                               ; preds = %82, %index2adr.exit
  store ptr %75, ptr %73, align 8, !tbaa !14
  ret void
}